target datalayout = "e-m:e-p270:32:32-p271:32:32-p272:64:64-i64:64-i128:128-f80:128-n8:16:32:64-S128"
target triple = "x86_64-pc-linux-gnu"

@.str.10 = private unnamed_addr constant [7 x i8] c"Worker\00", align 1

; Function Attrs: nounwind uwtable
define dso_local ptr @js_init_module_os(ptr noundef %0, ptr noundef %1) #0 {
  %3 = alloca ptr, align 8
  %4 = alloca ptr, align 8
  %5 = alloca ptr, align 8
  %6 = alloca ptr, align 8
  store ptr %0, ptr %4, align 8
  store ptr %1, ptr %5, align 8
  %7 = load ptr, ptr %4, align 8
  %8 = load ptr, ptr %5, align 8
  %9 = call ptr @JS_NewCModule(ptr noundef %7, ptr noundef %8, ptr noundef @js_os_init)
  store ptr %9, ptr %6, align 8
  %10 = load ptr, ptr %6, align 8
  %11 = icmp ne ptr %10, null
  br i1 %11, label %13, label %12

12:                                               ; preds = %2
  store ptr null, ptr %3, align 8
  br label %21

13:                                               ; preds = %2
  %14 = load ptr, ptr %4, align 8
  %15 = load ptr, ptr %6, align 8
  %16 = call i32 @JS_AddModuleExportList(ptr noundef %14, ptr noundef %15, ptr noundef @js_os_funcs, i32 noundef 71)
  %17 = load ptr, ptr %4, align 8
  %18 = load ptr, ptr %6, align 8
  %19 = call i32 @JS_AddModuleExport(ptr noundef %17, ptr noundef %18, ptr noundef @.str.10)
  %20 = load ptr, ptr %6, align 8
  store ptr %20, ptr %3, align 8
  br label %21

21:                                               ; preds = %13, %12
  %22 = load ptr, ptr %3, align 8
  ret ptr %22
}