; Function Attrs: nounwind uwtable
define dso_local ptr @js_init_module_os(ptr noundef %0, ptr noundef %1) local_unnamed_addr #0 {
  %3 = tail call ptr @JS_NewCModule(ptr noundef %0, ptr noundef %1, ptr noundef nonnull @js_os_init) #29
  %.not = icmp eq ptr %3, null
  br i1 %.not, label %7, label %4

4:                                                ; preds = %2
  %5 = tail call i32 @JS_AddModuleExportList(ptr noundef %0, ptr noundef nonnull %3, ptr noundef nonnull @js_os_funcs, i32 noundef 71) #29
  %6 = tail call i32 @JS_AddModuleExport(ptr noundef %0, ptr noundef nonnull %3, ptr noundef nonnull @.str.10) #29
  br label %7

7:                                                ; preds = %2, %4
  ret ptr %3
}